target datalayout = "e-m:e-p270:32:32-p271:32:32-p272:64:64-i64:64-i128:128-f80:128-n8:16:32:64-S128"
target triple = "x86_64-pc-linux-gnu"

%struct.rb_code_location_struct = type { %struct.rb_code_position_struct, %struct.rb_code_position_struct }
%struct.rb_code_position_struct = type { i32, i32 }
%struct.lex_context = type { i16, [2 x i8] }
%struct.parser_params = type { ptr, ptr, %struct.anon.12, i64, i64, i32, i32, i32, i32, i32, ptr, ptr, ptr, ptr, i32, i32, ptr, i64, ptr, ptr, ptr, ptr, i64, i64, %struct.anon.13, ptr, i32, ptr, i32, i64, %struct.lex_context, ptr, ptr, ptr, i16, i64, i64, i64, i64, i64, i64 }
%struct.anon.12 = type { ptr, ptr, ptr, %struct.parser_string_buffer, ptr, ptr, ptr, ptr, ptr, ptr, i32, i32, i32, i32 }
%struct.parser_string_buffer = type { ptr, ptr }
%struct.anon.13 = type { ptr, i32, i32, i32, i32 }
%struct.RNode = type { i64, %struct.rb_code_location_struct, i32 }
%struct.RNode_LIST = type { %struct.RNode, ptr, %union.anon.15, ptr }
%union.anon.15 = type { i64 }
%struct.rb_parser_string = type { i32, ptr, i64, ptr }
%struct.RNode_DSTR = type { %struct.RNode, ptr, %union.anon.22, ptr }
%union.anon.22 = type { i64 }

@.str.561 = private unnamed_addr constant [44 x i8] c"negative string size (or size too big): %ld\00", align 1

; Function Attrs: inlinehint nounwind sspstrong uwtable
define internal void @nd_set_line(ptr noundef %0, i64 noundef %1) #6 {
  %3 = alloca ptr, align 8
  %4 = alloca i64, align 8
  store ptr %0, ptr %3, align 8, !tbaa !33
  store i64 %1, ptr %4, align 8, !tbaa !16
  %5 = load ptr, ptr %3, align 8, !tbaa !33
  %6 = getelementptr inbounds nuw %struct.RNode, ptr %5, i32 0, i32 0
  %7 = load i64, ptr %6, align 8, !tbaa !175
  %8 = and i64 %7, 32767
  store i64 %8, ptr %6, align 8, !tbaa !175
  %9 = load i64, ptr %4, align 8, !tbaa !16
  %10 = and i64 %9, 562949953421311
  %11 = shl i64 %10, 15
  %12 = load ptr, ptr %3, align 8, !tbaa !33
  %13 = getelementptr inbounds nuw %struct.RNode, ptr %12, i32 0, i32 0
  %14 = load i64, ptr %13, align 8, !tbaa !175
  %15 = or i64 %14, %11
  store i64 %15, ptr %13, align 8, !tbaa !175
  ret void
}

; Function Attrs: nounwind sspstrong uwtable
define internal i32 @parser_get_node_id(ptr noundef %0) #0 {
  %2 = alloca ptr, align 8
  %3 = alloca i32, align 4
  store ptr %0, ptr %2, align 8, !tbaa !6
  call void @llvm.lifetime.start.p0(i64 4, ptr %3) #25
  %4 = load ptr, ptr %2, align 8, !tbaa !6
  %5 = getelementptr inbounds nuw %struct.parser_params, ptr %4, i32 0, i32 26
  %6 = load i32, ptr %5, align 8, !tbaa !670
  store i32 %6, ptr %3, align 4, !tbaa !14
  %7 = load ptr, ptr %2, align 8, !tbaa !6
  %8 = getelementptr inbounds nuw %struct.parser_params, ptr %7, i32 0, i32 26
  %9 = load i32, ptr %8, align 8, !tbaa !670
  %10 = add nsw i32 %9, 1
  store i32 %10, ptr %8, align 8, !tbaa !670
  %11 = load i32, ptr %3, align 4, !tbaa !14
  call void @llvm.lifetime.end.p0(i64 4, ptr %3) #25
  ret i32 %11
}

; Function Attrs: nounwind sspstrong uwtable
define internal ptr @nd_set_loc(ptr noundef %0, ptr noundef %1) #0 {
  %3 = alloca ptr, align 8
  %4 = alloca ptr, align 8
  store ptr %0, ptr %3, align 8, !tbaa !33
  store ptr %1, ptr %4, align 8, !tbaa !22
  %5 = load ptr, ptr %3, align 8, !tbaa !33
  %6 = getelementptr inbounds nuw %struct.RNode, ptr %5, i32 0, i32 1
  %7 = load ptr, ptr %4, align 8, !tbaa !22
  call void @llvm.memcpy.p0.p0.i64(ptr align 8 %6, ptr align 4 %7, i64 16, i1 false), !tbaa.struct !13
  %8 = load ptr, ptr %3, align 8, !tbaa !33
  %9 = load ptr, ptr %4, align 8, !tbaa !22
  %10 = getelementptr inbounds nuw %struct.rb_code_location_struct, ptr %9, i32 0, i32 0
  %11 = getelementptr inbounds nuw %struct.rb_code_position_struct, ptr %10, i32 0, i32 0
  %12 = load i32, ptr %11, align 4, !tbaa !293
  %13 = sext i32 %12 to i64
  call void @nd_set_line(ptr noundef %8, i64 noundef %13)
  %14 = load ptr, ptr %3, align 8, !tbaa !33
  ret ptr %14
}

; Function Attrs: nounwind sspstrong uwtable
define internal ptr @node_new_internal(ptr noundef %0, i32 noundef %1, i64 noundef %2, i64 noundef %3) #0 {
  %5 = alloca ptr, align 8
  %6 = alloca i32, align 4
  %7 = alloca i64, align 8
  %8 = alloca i64, align 8
  %9 = alloca ptr, align 8
  store ptr %0, ptr %5, align 8, !tbaa !6
  store i32 %1, ptr %6, align 4, !tbaa !14
  store i64 %2, ptr %7, align 8, !tbaa !16
  store i64 %3, ptr %8, align 8, !tbaa !16
  call void @llvm.lifetime.start.p0(i64 8, ptr %9) #25
  %10 = load ptr, ptr %5, align 8, !tbaa !6
  %11 = getelementptr inbounds nuw %struct.parser_params, ptr %10, i32 0, i32 25
  %12 = load ptr, ptr %11, align 8, !tbaa !172
  %13 = load i32, ptr %6, align 4, !tbaa !14
  %14 = load i64, ptr %7, align 8, !tbaa !16
  %15 = load i64, ptr %8, align 8, !tbaa !16
  %16 = call ptr @rb_ast_newnode(ptr noundef %12, i32 noundef %13, i64 noundef %14, i64 noundef %15)
  store ptr %16, ptr %9, align 8, !tbaa !33
  %17 = load ptr, ptr %9, align 8, !tbaa !33
  %18 = load i32, ptr %6, align 4, !tbaa !14
  call void @rb_node_init(ptr noundef %17, i32 noundef %18)
  %19 = load ptr, ptr %9, align 8, !tbaa !33
  call void @llvm.lifetime.end.p0(i64 8, ptr %9) #25
  ret ptr %19
}

; Function Attrs: alwaysinline nounwind
define internal ptr @memcpy.inline(ptr noalias nonnull %0, ptr noalias nonnull %1, i64 %2) #14 {
  %4 = alloca ptr, align 8
  %5 = alloca ptr, align 8
  %6 = alloca i64, align 8
  store ptr %0, ptr %4, align 8, !tbaa !609
  store ptr %1, ptr %5, align 8, !tbaa !609
  store i64 %2, ptr %6, align 8, !tbaa !16
  %7 = load ptr, ptr %4, align 8, !tbaa !609
  %8 = load ptr, ptr %5, align 8, !tbaa !609
  %9 = load i64, ptr %6, align 8, !tbaa !16
  %10 = load ptr, ptr %4, align 8, !tbaa !609
  %11 = call i64 @llvm.objectsize.i64.p0(ptr %10, i1 false, i1 true, i1 false)
  %12 = call ptr @__memcpy_chk(ptr noundef %7, ptr noundef %8, i64 noundef %9, i64 noundef %11) #25
  ret ptr %12
}

; Function Attrs: nounwind sspstrong uwtable
define internal ptr @node_newnode(ptr noundef %0, i32 noundef %1, i64 noundef %2, i64 noundef %3, ptr noundef %4) #0 {
  %6 = alloca ptr, align 8
  %7 = alloca i32, align 4
  %8 = alloca i64, align 8
  %9 = alloca i64, align 8
  %10 = alloca ptr, align 8
  %11 = alloca ptr, align 8
  store ptr %0, ptr %6, align 8, !tbaa !6
  store i32 %1, ptr %7, align 4, !tbaa !14
  store i64 %2, ptr %8, align 8, !tbaa !16
  store i64 %3, ptr %9, align 8, !tbaa !16
  store ptr %4, ptr %10, align 8, !tbaa !22
  call void @llvm.lifetime.start.p0(i64 8, ptr %11) #25
  %12 = load ptr, ptr %6, align 8, !tbaa !6
  %13 = load i32, ptr %7, align 4, !tbaa !14
  %14 = load i64, ptr %8, align 8, !tbaa !16
  %15 = load i64, ptr %9, align 8, !tbaa !16
  %16 = call ptr @node_new_internal(ptr noundef %12, i32 noundef %13, i64 noundef %14, i64 noundef %15)
  store ptr %16, ptr %11, align 8, !tbaa !33
  %17 = load ptr, ptr %11, align 8, !tbaa !33
  %18 = load ptr, ptr %10, align 8, !tbaa !22
  %19 = call ptr @nd_set_loc(ptr noundef %17, ptr noundef %18)
  %20 = load ptr, ptr %6, align 8, !tbaa !6
  %21 = call i32 @parser_get_node_id(ptr noundef %20)
  %22 = load ptr, ptr %11, align 8, !tbaa !33
  %23 = getelementptr inbounds nuw %struct.RNode, ptr %22, i32 0, i32 2
  store i32 %21, ptr %23, align 8, !tbaa !798
  %24 = load ptr, ptr %11, align 8, !tbaa !33
  call void @llvm.lifetime.end.p0(i64 8, ptr %11) #25
  ret ptr %24
}

; Function Attrs: inlinehint nounwind sspstrong memory(argmem: readwrite, inaccessiblemem: readwrite) uwtable
define internal nonnull ptr @ruby_nonempty_memcpy(ptr noundef nonnull %0, ptr noundef %1, i64 noundef %2) #13 {
  %4 = alloca ptr, align 8
  %5 = alloca ptr, align 8
  %6 = alloca ptr, align 8
  %7 = alloca i64, align 8
  store ptr %0, ptr %5, align 8, !tbaa !609
  store ptr %1, ptr %6, align 8, !tbaa !609
  store i64 %2, ptr %7, align 8, !tbaa !16
  %8 = load i64, ptr %7, align 8, !tbaa !16
  %9 = icmp ne i64 %8, 0
  br i1 %9, label %10, label %15

10:                                               ; preds = %3
  %11 = load ptr, ptr %5, align 8, !tbaa !609
  %12 = load ptr, ptr %6, align 8, !tbaa !609
  %13 = load i64, ptr %7, align 8, !tbaa !16
  %14 = call ptr @memcpy.inline(ptr noundef %11, ptr noundef %12, i64 noundef %13) #25
  store ptr %14, ptr %4, align 8
  br label %17

15:                                               ; preds = %3
  %16 = load ptr, ptr %5, align 8, !tbaa !609
  store ptr %16, ptr %4, align 8
  br label %17

17:                                               ; preds = %15, %10
  %18 = load ptr, ptr %4, align 8
  ret ptr %18
}

; Function Attrs: nounwind sspstrong uwtable
define internal ptr @rb_node_list_new(ptr noundef %0, ptr noundef %1, ptr noundef %2) #0 {
  %4 = alloca ptr, align 8
  %5 = alloca ptr, align 8
  %6 = alloca ptr, align 8
  %7 = alloca ptr, align 8
  store ptr %0, ptr %4, align 8, !tbaa !6
  store ptr %1, ptr %5, align 8, !tbaa !33
  store ptr %2, ptr %6, align 8, !tbaa !22
  call void @llvm.lifetime.start.p0(i64 8, ptr %7) #25
  %8 = load ptr, ptr %4, align 8, !tbaa !6
  %9 = load ptr, ptr %6, align 8, !tbaa !22
  %10 = call ptr @node_newnode(ptr noundef %8, i32 noundef 43, i64 noundef 56, i64 noundef 8, ptr noundef %9)
  store ptr %10, ptr %7, align 8, !tbaa !428
  %11 = load ptr, ptr %5, align 8, !tbaa !33
  %12 = load ptr, ptr %7, align 8, !tbaa !428
  %13 = getelementptr inbounds nuw %struct.RNode_LIST, ptr %12, i32 0, i32 1
  store ptr %11, ptr %13, align 8, !tbaa !277
  %14 = load ptr, ptr %7, align 8, !tbaa !428
  %15 = getelementptr inbounds nuw %struct.RNode_LIST, ptr %14, i32 0, i32 2
  store i64 1, ptr %15, align 8, !tbaa !12
  %16 = load ptr, ptr %7, align 8, !tbaa !428
  %17 = getelementptr inbounds nuw %struct.RNode_LIST, ptr %16, i32 0, i32 3
  store ptr null, ptr %17, align 8, !tbaa !279
  %18 = load ptr, ptr %7, align 8, !tbaa !428
  call void @llvm.lifetime.end.p0(i64 8, ptr %7) #25
  ret ptr %18
}

; Function Attrs: nounwind sspstrong uwtable
define internal ptr @rb_node_dstr_new0(ptr noundef %0, ptr noundef %1, i64 noundef %2, ptr noundef %3, ptr noundef %4) #0 {
  %6 = alloca ptr, align 8
  %7 = alloca ptr, align 8
  %8 = alloca i64, align 8
  %9 = alloca ptr, align 8
  %10 = alloca ptr, align 8
  %11 = alloca ptr, align 8
  store ptr %0, ptr %6, align 8, !tbaa !6
  store ptr %1, ptr %7, align 8, !tbaa !614
  store i64 %2, ptr %8, align 8, !tbaa !16
  store ptr %3, ptr %9, align 8, !tbaa !33
  store ptr %4, ptr %10, align 8, !tbaa !22
  call void @llvm.lifetime.start.p0(i64 8, ptr %11) #25
  %12 = load ptr, ptr %6, align 8, !tbaa !6
  %13 = load ptr, ptr %10, align 8, !tbaa !22
  %14 = call ptr @node_newnode(ptr noundef %12, i32 noundef 64, i64 noundef 56, i64 noundef 8, ptr noundef %13)
  store ptr %14, ptr %11, align 8, !tbaa !628
  %15 = load ptr, ptr %7, align 8, !tbaa !614
  %16 = load ptr, ptr %11, align 8, !tbaa !628
  %17 = getelementptr inbounds nuw %struct.RNode_DSTR, ptr %16, i32 0, i32 1
  store ptr %15, ptr %17, align 8, !tbaa !623
  %18 = load i64, ptr %8, align 8, !tbaa !16
  %19 = load ptr, ptr %11, align 8, !tbaa !628
  %20 = getelementptr inbounds nuw %struct.RNode_DSTR, ptr %19, i32 0, i32 2
  store i64 %18, ptr %20, align 8, !tbaa !12
  %21 = load ptr, ptr %9, align 8, !tbaa !33
  %22 = load ptr, ptr %11, align 8, !tbaa !628
  %23 = getelementptr inbounds nuw %struct.RNode_DSTR, ptr %22, i32 0, i32 3
  store ptr %21, ptr %23, align 8, !tbaa !625
  %24 = load ptr, ptr %11, align 8, !tbaa !628
  call void @llvm.lifetime.end.p0(i64 8, ptr %11) #25
  ret ptr %24
}

; Function Attrs: nounwind sspstrong uwtable
define internal ptr @rb_parser_string_new(ptr noundef %0, ptr noundef %1, i64 noundef %2) #0 {
  %4 = alloca ptr, align 8
  %5 = alloca ptr, align 8
  %6 = alloca i64, align 8
  %7 = alloca ptr, align 8
  store ptr %0, ptr %4, align 8, !tbaa !6
  store ptr %1, ptr %5, align 8, !tbaa !24
  store i64 %2, ptr %6, align 8, !tbaa !16
  call void @llvm.lifetime.start.p0(i64 8, ptr %7) #25
  %8 = load i64, ptr %6, align 8, !tbaa !16
  %9 = icmp slt i64 %8, 0
  br i1 %9, label %10, label %12

10:                                               ; preds = %3
  %11 = load i64, ptr %6, align 8, !tbaa !16
  call void (ptr, ...) @rb_bug(ptr noundef @.str.561, i64 noundef %11) #30
  unreachable

12:                                               ; preds = %3
  %13 = call noalias nonnull ptr @ruby_xcalloc(i64 noundef 1, i64 noundef 32) #31
  store ptr %13, ptr %7, align 8, !tbaa !614
  %14 = load i64, ptr %6, align 8, !tbaa !16
  %15 = add nsw i64 %14, 1
  %16 = call noalias nonnull ptr @ruby_xcalloc(i64 noundef %15, i64 noundef 1) #31
  %17 = load ptr, ptr %7, align 8, !tbaa !614
  %18 = getelementptr inbounds nuw %struct.rb_parser_string, ptr %17, i32 0, i32 3
  store ptr %16, ptr %18, align 8, !tbaa !669
  %19 = load ptr, ptr %5, align 8, !tbaa !24
  %20 = icmp ne ptr %19, null
  br i1 %20, label %21, label %28

21:                                               ; preds = %12
  %22 = load ptr, ptr %7, align 8, !tbaa !614
  %23 = getelementptr inbounds nuw %struct.rb_parser_string, ptr %22, i32 0, i32 3
  %24 = load ptr, ptr %23, align 8, !tbaa !669
  %25 = load ptr, ptr %5, align 8, !tbaa !24
  %26 = load i64, ptr %6, align 8, !tbaa !16
  %27 = call nonnull ptr @ruby_nonempty_memcpy(ptr noundef %24, ptr noundef %25, i64 noundef %26) #32
  br label %28

28:                                               ; preds = %21, %12
  br label %29

29:                                               ; preds = %28
  %30 = load i64, ptr %6, align 8, !tbaa !16
  %31 = load ptr, ptr %7, align 8, !tbaa !614
  %32 = getelementptr inbounds nuw %struct.rb_parser_string, ptr %31, i32 0, i32 2
  store i64 %30, ptr %32, align 8, !tbaa !668
  br label %33

33:                                               ; preds = %29
  br label %34

34:                                               ; preds = %33
  %35 = load ptr, ptr %7, align 8, !tbaa !614
  %36 = getelementptr inbounds nuw %struct.rb_parser_string, ptr %35, i32 0, i32 3
  %37 = load ptr, ptr %36, align 8, !tbaa !669
  %38 = load ptr, ptr %7, align 8, !tbaa !614
  %39 = getelementptr inbounds nuw %struct.rb_parser_string, ptr %38, i32 0, i32 2
  %40 = load i64, ptr %39, align 8, !tbaa !668
  %41 = getelementptr inbounds i8, ptr %37, i64 %40
  store i8 0, ptr %41, align 1, !tbaa !12
  %42 = load ptr, ptr %7, align 8, !tbaa !614
  call void @llvm.lifetime.end.p0(i64 8, ptr %7) #25
  ret ptr %42
}

; Function Attrs: nounwind sspstrong uwtable
define internal ptr @list_append(ptr noundef %0, ptr noundef %1, ptr noundef %2) #0 {
  %4 = alloca ptr, align 8
  %5 = alloca ptr, align 8
  %6 = alloca ptr, align 8
  %7 = alloca ptr, align 8
  %8 = alloca ptr, align 8
  %9 = alloca i32, align 4
  store ptr %0, ptr %5, align 8, !tbaa !6
  store ptr %1, ptr %6, align 8, !tbaa !33
  store ptr %2, ptr %7, align 8, !tbaa !33
  call void @llvm.lifetime.start.p0(i64 8, ptr %8) #25
  %10 = load ptr, ptr %6, align 8, !tbaa !33
  %11 = icmp eq ptr %10, null
  br i1 %11, label %12, label %18

12:                                               ; preds = %3
  %13 = load ptr, ptr %5, align 8, !tbaa !6
  %14 = load ptr, ptr %7, align 8, !tbaa !33
  %15 = load ptr, ptr %7, align 8, !tbaa !33
  %16 = getelementptr inbounds nuw %struct.RNode, ptr %15, i32 0, i32 1
  %17 = call ptr @rb_node_list_new(ptr noundef %13, ptr noundef %14, ptr noundef %16)
  store ptr %17, ptr %4, align 8
  store i32 1, ptr %9, align 4
  br label %57

18:                                               ; preds = %3
  %19 = load ptr, ptr %6, align 8, !tbaa !33
  %20 = getelementptr inbounds nuw %struct.RNode_LIST, ptr %19, i32 0, i32 3
  %21 = load ptr, ptr %20, align 8, !tbaa !279
  %22 = icmp ne ptr %21, null
  br i1 %22, label %23, label %29

23:                                               ; preds = %18
  %24 = load ptr, ptr %6, align 8, !tbaa !33
  %25 = getelementptr inbounds nuw %struct.RNode_LIST, ptr %24, i32 0, i32 3
  %26 = load ptr, ptr %25, align 8, !tbaa !279
  %27 = getelementptr inbounds nuw %struct.RNode_LIST, ptr %26, i32 0, i32 2
  %28 = load ptr, ptr %27, align 8, !tbaa !12
  store ptr %28, ptr %8, align 8, !tbaa !33
  br label %31

29:                                               ; preds = %18
  %30 = load ptr, ptr %6, align 8, !tbaa !33
  store ptr %30, ptr %8, align 8, !tbaa !33
  br label %31

31:                                               ; preds = %29, %23
  %32 = load ptr, ptr %6, align 8, !tbaa !33
  %33 = getelementptr inbounds nuw %struct.RNode_LIST, ptr %32, i32 0, i32 2
  %34 = load i64, ptr %33, align 8, !tbaa !12
  %35 = add nsw i64 %34, 1
  store i64 %35, ptr %33, align 8, !tbaa !12
  %36 = load ptr, ptr %5, align 8, !tbaa !6
  %37 = load ptr, ptr %7, align 8, !tbaa !33
  %38 = load ptr, ptr %7, align 8, !tbaa !33
  %39 = getelementptr inbounds nuw %struct.RNode, ptr %38, i32 0, i32 1
  %40 = call ptr @rb_node_list_new(ptr noundef %36, ptr noundef %37, ptr noundef %39)
  %41 = load ptr, ptr %8, align 8, !tbaa !33
  %42 = getelementptr inbounds nuw %struct.RNode_LIST, ptr %41, i32 0, i32 3
  store ptr %40, ptr %42, align 8, !tbaa !279
  %43 = load ptr, ptr %8, align 8, !tbaa !33
  %44 = getelementptr inbounds nuw %struct.RNode_LIST, ptr %43, i32 0, i32 3
  %45 = load ptr, ptr %44, align 8, !tbaa !279
  %46 = load ptr, ptr %6, align 8, !tbaa !33
  %47 = getelementptr inbounds nuw %struct.RNode_LIST, ptr %46, i32 0, i32 3
  %48 = load ptr, ptr %47, align 8, !tbaa !279
  %49 = getelementptr inbounds nuw %struct.RNode_LIST, ptr %48, i32 0, i32 2
  store ptr %45, ptr %49, align 8, !tbaa !12
  %50 = load ptr, ptr %6, align 8, !tbaa !33
  %51 = getelementptr inbounds nuw %struct.RNode, ptr %50, i32 0, i32 1
  %52 = getelementptr inbounds nuw %struct.rb_code_location_struct, ptr %51, i32 0, i32 1
  %53 = load ptr, ptr %7, align 8, !tbaa !33
  %54 = getelementptr inbounds nuw %struct.RNode, ptr %53, i32 0, i32 1
  %55 = getelementptr inbounds nuw %struct.rb_code_location_struct, ptr %54, i32 0, i32 1
  call void @llvm.memcpy.p0.p0.i64(ptr align 8 %52, ptr align 8 %55, i64 8, i1 false), !tbaa.struct !32
  %56 = load ptr, ptr %6, align 8, !tbaa !33
  store ptr %56, ptr %4, align 8
  store i32 1, ptr %9, align 4
  br label %57

57:                                               ; preds = %31, %12
  call void @llvm.lifetime.end.p0(i64 8, ptr %8) #25
  %58 = load ptr, ptr %4, align 8
  ret ptr %58
}

; Function Attrs: nounwind sspstrong uwtable
define internal ptr @rb_node_dstr_new(ptr noundef %0, ptr noundef %1, ptr noundef %2) #0 {
  %4 = alloca ptr, align 8
  %5 = alloca ptr, align 8
  %6 = alloca ptr, align 8
  store ptr %0, ptr %4, align 8, !tbaa !6
  store ptr %1, ptr %5, align 8, !tbaa !614
  store ptr %2, ptr %6, align 8, !tbaa !22
  %7 = load ptr, ptr %4, align 8, !tbaa !6
  %8 = load ptr, ptr %5, align 8, !tbaa !614
  %9 = load ptr, ptr %6, align 8, !tbaa !22
  %10 = call ptr @rb_node_dstr_new0(ptr noundef %7, ptr noundef %8, i64 noundef 1, ptr noundef null, ptr noundef %9)
  ret ptr %10
}

; Function Attrs: nounwind sspstrong uwtable
define internal ptr @rb_parser_encoding_string_new(ptr noundef %0, ptr noundef %1, i64 noundef %2, ptr noundef %3) #0 {
  %5 = alloca ptr, align 8
  %6 = alloca ptr, align 8
  %7 = alloca i64, align 8
  %8 = alloca ptr, align 8
  %9 = alloca ptr, align 8
  store ptr %0, ptr %5, align 8, !tbaa !6
  store ptr %1, ptr %6, align 8, !tbaa !24
  store i64 %2, ptr %7, align 8, !tbaa !16
  store ptr %3, ptr %8, align 8, !tbaa !619
  call void @llvm.lifetime.start.p0(i64 8, ptr %9) #25
  %10 = load ptr, ptr %5, align 8, !tbaa !6
  %11 = load ptr, ptr %6, align 8, !tbaa !24
  %12 = load i64, ptr %7, align 8, !tbaa !16
  %13 = call ptr @rb_parser_string_new(ptr noundef %10, ptr noundef %11, i64 noundef %12)
  store ptr %13, ptr %9, align 8, !tbaa !614
  %14 = load ptr, ptr %9, align 8, !tbaa !614
  %15 = getelementptr inbounds nuw %struct.rb_parser_string, ptr %14, i32 0, i32 0
  store i32 0, ptr %15, align 8, !tbaa !620
  %16 = load ptr, ptr %8, align 8, !tbaa !619
  %17 = load ptr, ptr %9, align 8, !tbaa !614
  %18 = getelementptr inbounds nuw %struct.rb_parser_string, ptr %17, i32 0, i32 1
  store ptr %16, ptr %18, align 8, !tbaa !622
  %19 = load ptr, ptr %9, align 8, !tbaa !614
  call void @llvm.lifetime.end.p0(i64 8, ptr %9) #25
  ret ptr %19
}

; Function Attrs: nounwind sspstrong uwtable
define internal ptr @new_dstr(ptr noundef %0, ptr noundef %1, ptr noundef %2) #0 {
  %4 = alloca ptr, align 8
  %5 = alloca ptr, align 8
  %6 = alloca ptr, align 8
  %7 = alloca ptr, align 8
  store ptr %0, ptr %4, align 8, !tbaa !6
  store ptr %1, ptr %5, align 8, !tbaa !33
  store ptr %2, ptr %6, align 8, !tbaa !22
  call void @llvm.lifetime.start.p0(i64 8, ptr %7) #25
  %8 = load ptr, ptr %4, align 8, !tbaa !6
  %9 = load ptr, ptr %4, align 8, !tbaa !6
  %10 = load ptr, ptr %4, align 8, !tbaa !6
  %11 = getelementptr inbounds nuw %struct.parser_params, ptr %10, i32 0, i32 18
  %12 = load ptr, ptr %11, align 8, !tbaa !75
  %13 = call ptr @rb_parser_encoding_string_new(ptr noundef %9, ptr noundef null, i64 noundef 0, ptr noundef %12)
  %14 = load ptr, ptr %6, align 8, !tbaa !22
  %15 = call ptr @rb_node_dstr_new(ptr noundef %8, ptr noundef %13, ptr noundef %14)
  store ptr %15, ptr %7, align 8, !tbaa !33
  %16 = load ptr, ptr %4, align 8, !tbaa !6
  %17 = load ptr, ptr %7, align 8, !tbaa !33
  %18 = load ptr, ptr %5, align 8, !tbaa !33
  %19 = call ptr @list_append(ptr noundef %16, ptr noundef %17, ptr noundef %18)
  call void @llvm.lifetime.end.p0(i64 8, ptr %7) #25
  ret ptr %19
}

; Function Attrs: inlinehint nounwind sspstrong uwtable
define internal zeroext i1 @nd_type_p(ptr noundef %0, i32 noundef %1) #6 {
  %3 = alloca ptr, align 8
  %4 = alloca i32, align 4
  store ptr %0, ptr %3, align 8, !tbaa !33
  store i32 %1, ptr %4, align 4, !tbaa !14
  %5 = load ptr, ptr %3, align 8, !tbaa !33
  %6 = getelementptr inbounds nuw %struct.RNode, ptr %5, i32 0, i32 0
  %7 = load i64, ptr %6, align 8, !tbaa !175
  %8 = and i64 %7, 32512
  %9 = lshr i64 %8, 8
  %10 = trunc i64 %9 to i32
  %11 = load i32, ptr %4, align 4, !tbaa !14
  %12 = icmp eq i32 %10, %11
  ret i1 %12
}

; Function Attrs: nounwind sspstrong uwtable
define internal ptr @evstr2dstr(ptr noundef %0, ptr noundef %1) #0 {
  %3 = alloca ptr, align 8
  %4 = alloca ptr, align 8
  store ptr %0, ptr %3, align 8, !tbaa !6
  store ptr %1, ptr %4, align 8, !tbaa !33
  %5 = load ptr, ptr %4, align 8, !tbaa !33
  %6 = call zeroext i1 @nd_type_p(ptr noundef %5, i32 noundef 67)
  br i1 %6, label %7, label %13

7:                                                ; preds = %2
  %8 = load ptr, ptr %3, align 8, !tbaa !6
  %9 = load ptr, ptr %4, align 8, !tbaa !33
  %10 = load ptr, ptr %4, align 8, !tbaa !33
  %11 = getelementptr inbounds nuw %struct.RNode, ptr %10, i32 0, i32 1
  %12 = call ptr @new_dstr(ptr noundef %8, ptr noundef %9, ptr noundef %11)
  store ptr %12, ptr %4, align 8, !tbaa !33
  br label %13

13:                                               ; preds = %7, %2
  %14 = load ptr, ptr %4, align 8, !tbaa !33
  ret ptr %14
}