; Function Attrs: nounwind sspstrong uwtable
define internal fastcc noundef ptr @evstr2dstr(ptr noundef captures(none) %0, ptr noundef %1) unnamed_addr #0 {
  %.val = load i64, ptr %1, align 8, !tbaa !61
  %3 = and i64 %.val, 32512
  %4 = icmp eq i64 %3, 17152
  br i1 %4, label %list_append.exit, label %46

list_append.exit:                                 ; preds = %2
  %5 = getelementptr inbounds nuw i8, ptr %1, i64 8
  %6 = getelementptr inbounds nuw i8, ptr %0, i64 216
  %7 = load ptr, ptr %6, align 8, !tbaa !49
  %8 = tail call noalias nonnull dereferenceable(32) ptr @ruby_xcalloc(i64 noundef 1, i64 noundef 32) #35
  %9 = tail call noalias nonnull dereferenceable(1) ptr @ruby_xcalloc(i64 noundef 1, i64 noundef 1) #35
  %10 = getelementptr inbounds nuw i8, ptr %8, i64 24
  store ptr %9, ptr %10, align 8, !tbaa !443
  %11 = getelementptr inbounds nuw i8, ptr %8, i64 16
  store i64 0, ptr %11, align 8, !tbaa !445
  store i8 0, ptr %9, align 1, !tbaa !6
  store i32 0, ptr %8, align 8, !tbaa !446
  %12 = getelementptr inbounds nuw i8, ptr %8, i64 8
  store ptr %7, ptr %12, align 8, !tbaa !447
  %13 = getelementptr i8, ptr %0, i64 288
  %.val.i.i.i.i = load ptr, ptr %13, align 8, !tbaa !120
  %14 = tail call ptr @rb_ast_newnode(ptr noundef %.val.i.i.i.i, i32 noundef range(i32 0, 115) 64, i64 noundef range(i64 32, 129) 56, i64 noundef 8) #31
  tail call void @rb_node_init(ptr noundef %14, i32 noundef range(i32 0, 115) 64) #31
  %15 = getelementptr inbounds nuw i8, ptr %14, i64 8
  tail call void @llvm.memcpy.p0.p0.i64(ptr noundef nonnull align 8 dereferenceable(16) %15, ptr noundef nonnull readonly align 4 dereferenceable(16) %5, i64 16, i1 false), !tbaa.struct !11
  %16 = load i32, ptr %5, align 4, !tbaa !51
  %17 = sext i32 %16 to i64
  %18 = load i64, ptr %14, align 8, !tbaa !61
  %19 = and i64 %18, 32767
  %20 = shl nsw i64 %17, 15
  %21 = or disjoint i64 %19, %20
  store i64 %21, ptr %14, align 8, !tbaa !61
  %22 = getelementptr inbounds nuw i8, ptr %0, i64 296
  %23 = load i32, ptr %22, align 8, !tbaa !192
  %24 = add nsw i32 %23, 1
  store i32 %24, ptr %22, align 8, !tbaa !192
  %25 = getelementptr inbounds nuw i8, ptr %14, i64 24
  store i32 %23, ptr %25, align 8, !tbaa !193
  %26 = getelementptr inbounds nuw i8, ptr %14, i64 32
  store ptr %8, ptr %26, align 8, !tbaa !426
  %27 = getelementptr inbounds nuw i8, ptr %14, i64 40
  %28 = getelementptr inbounds nuw i8, ptr %14, i64 48
  store ptr null, ptr %28, align 8, !tbaa !429
  store i64 2, ptr %27, align 8, !tbaa !6
  %.val.i.i21.i = load ptr, ptr %13, align 8, !tbaa !120
  %29 = tail call ptr @rb_ast_newnode(ptr noundef %.val.i.i21.i, i32 noundef range(i32 0, 115) 43, i64 noundef range(i64 32, 129) 56, i64 noundef 8) #31
  tail call void @rb_node_init(ptr noundef %29, i32 noundef range(i32 0, 115) 43) #31
  %30 = getelementptr inbounds nuw i8, ptr %29, i64 8
  tail call void @llvm.memcpy.p0.p0.i64(ptr noundef nonnull align 8 dereferenceable(16) %30, ptr noundef nonnull readonly align 4 dereferenceable(16) %5, i64 16, i1 false), !tbaa.struct !11
  %31 = load i32, ptr %5, align 4, !tbaa !51
  %32 = sext i32 %31 to i64
  %33 = load i64, ptr %29, align 8, !tbaa !61
  %34 = and i64 %33, 32767
  %35 = shl nsw i64 %32, 15
  %36 = or disjoint i64 %34, %35
  store i64 %36, ptr %29, align 8, !tbaa !61
  %37 = load i32, ptr %22, align 8, !tbaa !192
  %38 = add nsw i32 %37, 1
  store i32 %38, ptr %22, align 8, !tbaa !192
  %39 = getelementptr inbounds nuw i8, ptr %29, i64 24
  store i32 %37, ptr %39, align 8, !tbaa !193
  %40 = getelementptr inbounds nuw i8, ptr %29, i64 32
  store ptr %1, ptr %40, align 8, !tbaa !170
  %41 = getelementptr inbounds nuw i8, ptr %29, i64 40
  %42 = getelementptr inbounds nuw i8, ptr %29, i64 48
  store ptr null, ptr %42, align 8, !tbaa !172
  store ptr %29, ptr %28, align 8, !tbaa !172
  store ptr %29, ptr %41, align 8, !tbaa !6
  %43 = getelementptr inbounds nuw i8, ptr %14, i64 16
  %44 = getelementptr inbounds nuw i8, ptr %1, i64 16
  %45 = load i64, ptr %44, align 8
  store i64 %45, ptr %43, align 8
  br label %46

46:                                               ; preds = %list_append.exit, %2
  %.0 = phi ptr [ %14, %list_append.exit ], [ %1, %2 ]
  ret ptr %.0
}